; ModuleID = 'source-C-CXX/2/2921.c'
source_filename = "source-C-CXX/2/2921.c"
target datalayout = "e-m:e-p270:32:32-p271:32:32-p272:64:64-i64:64-f80:128-n8:16:32:64-S128"
target triple = "x86_64-pc-linux-gnu"

@.str = private unnamed_addr constant [5 x i8] c"%d%d\00", align 1
@.str.1 = private unnamed_addr constant [3 x i8] c"%d\00", align 1
@.str.2 = private unnamed_addr constant [4 x i8] c"yes\00", align 1
@.str.3 = private unnamed_addr constant [3 x i8] c"no\00", align 1

; Function Attrs: nofree nounwind sspstrong uwtable
define dso_local i32 @main() local_unnamed_addr #0 {
  %1 = alloca i32, align 4
  %2 = alloca [1000 x i32], align 16
  %3 = alloca i32, align 4
  %4 = bitcast i32* %1 to i8*
  call void @llvm.lifetime.start.p0i8(i64 4, i8* nonnull %4) #3
  %5 = bitcast [1000 x i32]* %2 to i8*
  call void @llvm.lifetime.start.p0i8(i64 4000, i8* nonnull %5) #3
  %6 = bitcast i32* %3 to i8*
  call void @llvm.lifetime.start.p0i8(i64 4, i8* nonnull %6) #3
  %7 = call i32 (i8*, ...) @__isoc99_scanf(i8* getelementptr inbounds ([5 x i8], [5 x i8]* @.str, i64 0, i64 0), i32* nonnull %3, i32* nonnull %1)
  %8 = load i32, i32* %3, align 4, !tbaa !5
  %9 = icmp sgt i32 %8, 0
  br i1 %9, label %42, label %52

10:                                               ; preds = %42
  %11 = load i32, i32* %1, align 4
  %12 = icmp sgt i32 %47, 0
  br i1 %12, label %13, label %52

13:                                               ; preds = %10
  %14 = zext i32 %47 to i64
  br label %15

15:                                               ; preds = %13, %32
  %16 = phi i64 [ 0, %13 ], [ %40, %32 ]
  %17 = phi i32 [ 0, %13 ], [ %39, %32 ]
  %18 = getelementptr inbounds [1000 x i32], [1000 x i32]* %2, i64 0, i64 %16
  %19 = load i32, i32* %18, align 4, !tbaa !5
  br label %20

20:                                               ; preds = %15, %29
  %21 = phi i64 [ 0, %15 ], [ %30, %29 ]
  %22 = getelementptr inbounds [1000 x i32], [1000 x i32]* %2, i64 0, i64 %21
  %23 = load i32, i32* %22, align 4, !tbaa !5
  %24 = add nsw i32 %23, %19
  %25 = icmp eq i32 %24, %11
  br i1 %25, label %26, label %29

26:                                               ; preds = %20
  %27 = trunc i64 %21 to i32
  %28 = and i64 %21, 4294967295
  br label %32

29:                                               ; preds = %20
  %30 = add nuw nsw i64 %21, 1
  %31 = icmp eq i64 %30, %14
  br i1 %31, label %32, label %20, !llvm.loop !9

32:                                               ; preds = %29, %26
  %33 = phi i64 [ %28, %26 ], [ %14, %29 ]
  %34 = phi i32 [ %27, %26 ], [ %47, %29 ]
  %35 = icmp ne i32 %34, %47
  %36 = icmp ne i64 %16, %33
  %37 = select i1 %35, i1 %36, i1 false
  %38 = zext i1 %37 to i32
  %39 = add nuw nsw i32 %17, %38
  %40 = add nuw nsw i64 %16, 1
  %41 = icmp eq i64 %40, %14
  br i1 %41, label %50, label %15, !llvm.loop !11

42:                                               ; preds = %0, %42
  %43 = phi i64 [ %46, %42 ], [ 0, %0 ]
  %44 = getelementptr inbounds [1000 x i32], [1000 x i32]* %2, i64 0, i64 %43
  %45 = call i32 (i8*, ...) @__isoc99_scanf(i8* getelementptr inbounds ([3 x i8], [3 x i8]* @.str.1, i64 0, i64 0), i32* nonnull %44)
  %46 = add nuw nsw i64 %43, 1
  %47 = load i32, i32* %3, align 4, !tbaa !5
  %48 = sext i32 %47 to i64
  %49 = icmp slt i64 %46, %48
  br i1 %49, label %42, label %10, !llvm.loop !12

50:                                               ; preds = %32
  %51 = icmp eq i32 %39, 0
  br i1 %51, label %52, label %53

52:                                               ; preds = %0, %10, %50
  br label %53

53:                                               ; preds = %50, %52
  %54 = phi i8* [ getelementptr inbounds ([3 x i8], [3 x i8]* @.str.3, i64 0, i64 0), %52 ], [ getelementptr inbounds ([4 x i8], [4 x i8]* @.str.2, i64 0, i64 0), %50 ]
  %55 = call i32 (i8*, ...) @printf(i8* nonnull dereferenceable(1) %54)
  call void @llvm.lifetime.end.p0i8(i64 4, i8* nonnull %6) #3
  call void @llvm.lifetime.end.p0i8(i64 4000, i8* nonnull %5) #3
  call void @llvm.lifetime.end.p0i8(i64 4, i8* nonnull %4) #3
  ret i32 0
}

; Function Attrs: argmemonly mustprogress nofree nosync nounwind willreturn
declare void @llvm.lifetime.start.p0i8(i64 immarg, i8* nocapture) #1

; Function Attrs: nofree nounwind
declare noundef i32 @__isoc99_scanf(i8* nocapture noundef readonly, ...) local_unnamed_addr #2

; Function Attrs: nofree nounwind
declare noundef i32 @printf(i8* nocapture noundef readonly, ...) local_unnamed_addr #2

; Function Attrs: argmemonly mustprogress nofree nosync nounwind willreturn
declare void @llvm.lifetime.end.p0i8(i64 immarg, i8* nocapture) #1


!llvm.module.flags = !{!0, !1, !2, !3}
!llvm.ident = !{!4}

!0 = !{i32 1, !"wchar_size", i32 4}
!1 = !{i32 7, !"PIC Level", i32 2}
!2 = !{i32 7, !"PIE Level", i32 2}
!3 = !{i32 7, !"uwtable", i32 1}
!4 = !{!"clang version 13.0.0"}
!5 = !{!6, !6, i64 0}
!6 = !{!"int", !7, i64 0}
!7 = !{!"omnipotent char", !8, i64 0}
!8 = !{!"Simple C/C++ TBAA"}
!9 = distinct !{!9, !10}
!10 = !{!"llvm.loop.mustprogress"}
!11 = distinct !{!11, !10}
!12 = distinct !{!12, !10}
